; ModuleID = '24/2629.c'
source_filename = "24/2629.c"
target datalayout = "e-m:e-p270:32:32-p271:32:32-p272:64:64-i64:64-f80:128-n8:16:32:64-S128"
target triple = "x86_64-pc-linux-gnu"

@.str = private unnamed_addr constant [3 x i8] c"%d\00", align 1
@.str.1 = private unnamed_addr constant [3 x i8] c"%s\00", align 1
@.str.2 = private unnamed_addr constant [4 x i8] c"%s\0A\00", align 1

; Function Attrs: noinline nounwind uwtable
define dso_local i32 @main() #0 {
  %1 = alloca i32, align 4
  %2 = alloca [200 x [100 x i8]], align 16
  %3 = alloca i32, align 4
  %4 = alloca i32, align 4
  %5 = alloca [200 x i32], align 16
  %6 = alloca i32*, align 8
  %7 = alloca i32*, align 8
  %8 = alloca i32*, align 8
  store i32 0, i32* %1, align 4
  %9 = bitcast [200 x [100 x i8]]* %2 to i8*
  call void @llvm.memset.p0i8.i64(i8* align 16 %9, i8 0, i64 20000, i1 false)
  %10 = bitcast [200 x i32]* %5 to i8*
  call void @llvm.memset.p0i8.i64(i8* align 16 %10, i8 0, i64 800, i1 false)
  %11 = call i32 (i8*, ...) @__isoc99_scanf(i8* getelementptr inbounds ([3 x i8], [3 x i8]* @.str, i64 0, i64 0), i32* %3)
  store i32 0, i32* %4, align 4
  br label %12

12:                                               ; preds = %30, %0
  %13 = load i32, i32* %4, align 4
  %14 = load i32, i32* %3, align 4
  %15 = icmp slt i32 %13, %14
  br i1 %15, label %16, label %33

16:                                               ; preds = %12
  %17 = load i32, i32* %4, align 4
  %18 = sext i32 %17 to i64
  %19 = getelementptr inbounds [200 x [100 x i8]], [200 x [100 x i8]]* %2, i64 0, i64 %18
  %20 = call i32 (i8*, ...) @__isoc99_scanf(i8* getelementptr inbounds ([3 x i8], [3 x i8]* @.str.1, i64 0, i64 0), [100 x i8]* %19)
  %21 = load i32, i32* %4, align 4
  %22 = sext i32 %21 to i64
  %23 = getelementptr inbounds [200 x [100 x i8]], [200 x [100 x i8]]* %2, i64 0, i64 %22
  %24 = getelementptr inbounds [100 x i8], [100 x i8]* %23, i64 0, i64 0
  %25 = call i64 @strlen(i8* %24) #4
  %26 = trunc i64 %25 to i32
  %27 = load i32, i32* %4, align 4
  %28 = sext i32 %27 to i64
  %29 = getelementptr inbounds [200 x i32], [200 x i32]* %5, i64 0, i64 %28
  store i32 %26, i32* %29, align 4
  br label %30

30:                                               ; preds = %16
  %31 = load i32, i32* %4, align 4
  %32 = add nsw i32 %31, 1
  store i32 %32, i32* %4, align 4
  br label %12

33:                                               ; preds = %12
  %34 = getelementptr inbounds [200 x i32], [200 x i32]* %5, i64 0, i64 0
  store i32* %34, i32** %6, align 8
  %35 = getelementptr inbounds [200 x i32], [200 x i32]* %5, i64 0, i64 0
  store i32* %35, i32** %7, align 8
  %36 = getelementptr inbounds [200 x i32], [200 x i32]* %5, i64 0, i64 0
  store i32* %36, i32** %8, align 8
  store i32 0, i32* %4, align 4
  br label %37

37:                                               ; preds = %71, %33
  %38 = load i32, i32* %4, align 4
  %39 = load i32, i32* %3, align 4
  %40 = icmp slt i32 %38, %39
  br i1 %40, label %41, label %74

41:                                               ; preds = %37
  %42 = load i32*, i32** %6, align 8
  %43 = load i32, i32* %4, align 4
  %44 = sext i32 %43 to i64
  %45 = getelementptr inbounds i32, i32* %42, i64 %44
  %46 = load i32, i32* %45, align 4
  %47 = load i32*, i32** %7, align 8
  %48 = load i32, i32* %47, align 4
  %49 = icmp sgt i32 %46, %48
  br i1 %49, label %50, label %55

50:                                               ; preds = %41
  %51 = load i32*, i32** %6, align 8
  %52 = load i32, i32* %4, align 4
  %53 = sext i32 %52 to i64
  %54 = getelementptr inbounds i32, i32* %51, i64 %53
  store i32* %54, i32** %7, align 8
  br label %70

55:                                               ; preds = %41
  %56 = load i32*, i32** %6, align 8
  %57 = load i32, i32* %4, align 4
  %58 = sext i32 %57 to i64
  %59 = getelementptr inbounds i32, i32* %56, i64 %58
  %60 = load i32, i32* %59, align 4
  %61 = load i32*, i32** %8, align 8
  %62 = load i32, i32* %61, align 4
  %63 = icmp slt i32 %60, %62
  br i1 %63, label %64, label %69

64:                                               ; preds = %55
  %65 = load i32*, i32** %6, align 8
  %66 = load i32, i32* %4, align 4
  %67 = sext i32 %66 to i64
  %68 = getelementptr inbounds i32, i32* %65, i64 %67
  store i32* %68, i32** %8, align 8
  br label %69

69:                                               ; preds = %64, %55
  br label %70

70:                                               ; preds = %69, %50
  br label %71

71:                                               ; preds = %70
  %72 = load i32, i32* %4, align 4
  %73 = add nsw i32 %72, 1
  store i32 %73, i32* %4, align 4
  br label %37

74:                                               ; preds = %37
  store i32 0, i32* %4, align 4
  br label %75

75:                                               ; preds = %95, %74
  %76 = load i32, i32* %4, align 4
  %77 = load i32, i32* %3, align 4
  %78 = icmp slt i32 %76, %77
  br i1 %78, label %79, label %98

79:                                               ; preds = %75
  %80 = load i32*, i32** %6, align 8
  %81 = load i32, i32* %4, align 4
  %82 = sext i32 %81 to i64
  %83 = getelementptr inbounds i32, i32* %80, i64 %82
  %84 = load i32, i32* %83, align 4
  %85 = load i32*, i32** %7, align 8
  %86 = load i32, i32* %85, align 4
  %87 = icmp eq i32 %84, %86
  br i1 %87, label %88, label %94

88:                                               ; preds = %79
  %89 = load i32, i32* %4, align 4
  %90 = sext i32 %89 to i64
  %91 = getelementptr inbounds [200 x [100 x i8]], [200 x [100 x i8]]* %2, i64 0, i64 %90
  %92 = getelementptr inbounds [100 x i8], [100 x i8]* %91, i64 0, i64 0
  %93 = call i32 (i8*, ...) @printf(i8* getelementptr inbounds ([4 x i8], [4 x i8]* @.str.2, i64 0, i64 0), i8* %92)
  br label %98

94:                                               ; preds = %79
  br label %95

95:                                               ; preds = %94
  %96 = load i32, i32* %4, align 4
  %97 = add nsw i32 %96, 1
  store i32 %97, i32* %4, align 4
  br label %75

98:                                               ; preds = %88, %75
  store i32 0, i32* %4, align 4
  br label %99

99:                                               ; preds = %119, %98
  %100 = load i32, i32* %4, align 4
  %101 = load i32, i32* %3, align 4
  %102 = icmp slt i32 %100, %101
  br i1 %102, label %103, label %122

103:                                              ; preds = %99
  %104 = load i32*, i32** %6, align 8
  %105 = load i32, i32* %4, align 4
  %106 = sext i32 %105 to i64
  %107 = getelementptr inbounds i32, i32* %104, i64 %106
  %108 = load i32, i32* %107, align 4
  %109 = load i32*, i32** %8, align 8
  %110 = load i32, i32* %109, align 4
  %111 = icmp eq i32 %108, %110
  br i1 %111, label %112, label %118

112:                                              ; preds = %103
  %113 = load i32, i32* %4, align 4
  %114 = sext i32 %113 to i64
  %115 = getelementptr inbounds [200 x [100 x i8]], [200 x [100 x i8]]* %2, i64 0, i64 %114
  %116 = getelementptr inbounds [100 x i8], [100 x i8]* %115, i64 0, i64 0
  %117 = call i32 (i8*, ...) @printf(i8* getelementptr inbounds ([3 x i8], [3 x i8]* @.str.1, i64 0, i64 0), i8* %116)
  br label %122

118:                                              ; preds = %103
  br label %119

119:                                              ; preds = %118
  %120 = load i32, i32* %4, align 4
  %121 = add nsw i32 %120, 1
  store i32 %121, i32* %4, align 4
  br label %99

122:                                              ; preds = %112, %99
  ret i32 0
}

; Function Attrs: argmemonly nounwind willreturn
declare void @llvm.memset.p0i8.i64(i8* nocapture writeonly, i8, i64, i1 immarg) #1

declare dso_local i32 @__isoc99_scanf(i8*, ...) #2

; Function Attrs: nounwind readonly
declare dso_local i64 @strlen(i8*) #3

declare dso_local i32 @printf(i8*, ...) #2


!llvm.module.flags = !{!0}
!llvm.ident = !{!1}

!0 = !{i32 1, !"wchar_size", i32 4}
!1 = !{!"clang version 10.0.0-4ubuntu1 "}
